target datalayout = "e-m:e-p270:32:32-p271:32:32-p272:64:64-i64:64-i128:128-f80:128-n8:16:32:64-S128"
target triple = "x86_64-pc-linux-gnu"

%"class.zmq::dish_t" = type { %"class.zmq::socket_base_t.base", [7 x i8], %"class.zmq::fq_t", %"class.zmq::dist_t", %"class.std::set.46", i8, %"class.zmq::msg_t" }
%"class.zmq::socket_base_t.base" = type <{ %"class.zmq::own_t.base", [4 x i8], %"class.zmq::array_item_t.base", [4 x i8], %"struct.zmq::i_poll_events", %"struct.zmq::i_pipe_events", %"class.zmq::mutex_t", %"class.std::multimap", %"class.zmq::socket_base_t::inprocs_t", i32, i8, i8, [2 x i8], ptr, %"class.zmq::array_t", ptr, ptr, i64, i32, i8, [3 x i8], %"class.zmq::clock_t", ptr, i64, %"class.std::__cxx11::basic_string", i8, [7 x i8], ptr, %"class.zmq::mutex_t", i8 }>
%"class.zmq::own_t.base" = type <{ %"class.zmq::object_t.base", [4 x i8], %"struct.zmq::options_t", i8, [7 x i8], %"class.zmq::atomic_counter_t", i64, ptr, %"class.std::set.24", i32 }>
%"class.zmq::object_t.base" = type <{ ptr, ptr, i32 }>
%"struct.zmq::options_t" = type { i32, i32, i64, i8, [256 x i8], i32, i32, i32, i32, i32, i32, i32, i32, i8, %"struct.zmq::atomic_value_t", i32, i32, i32, i32, i32, i32, i64, i32, i32, i8, i32, i8, i8, i8, i8, i8, %"class.std::__cxx11::basic_string", %"class.std::__cxx11::basic_string", %"class.std::__cxx11::basic_string", i32, i32, i32, i32, %"class.std::vector", %"class.std::set", %"class.std::set", %"class.std::set.6", i32, i32, %"class.std::__cxx11::basic_string", %"class.std::__cxx11::basic_string", %"class.std::__cxx11::basic_string", [32 x i8], [32 x i8], [32 x i8], %"class.std::__cxx11::basic_string", %"class.std::__cxx11::basic_string", i32, i32, i8, i32, i8, i32, i8, i16, i32, i32, i32, %"class.std::__cxx11::basic_string", i8, i8, i8, i32, i32, i8, i32, %"class.std::map", i32, %"class.std::__cxx11::basic_string", %"class.std::__cxx11::basic_string", %"class.std::__cxx11::basic_string", %"class.std::__cxx11::basic_string", i8, %"class.std::vector.17", i8, %"class.std::vector.17", i8, %"class.std::vector.17", i8, i32, i8, i32, i32, i32, i32, i32, i8, i32 }
%"struct.zmq::atomic_value_t" = type { %"struct.std::atomic" }
%"struct.std::atomic" = type { %"struct.std::__atomic_base" }
%"struct.std::__atomic_base" = type { i32 }
%"class.std::vector" = type { %"struct.std::_Vector_base" }
%"struct.std::_Vector_base" = type { %"struct.std::_Vector_base<zmq::tcp_address_mask_t, std::allocator<zmq::tcp_address_mask_t>>::_Vector_impl" }
%"struct.std::_Vector_base<zmq::tcp_address_mask_t, std::allocator<zmq::tcp_address_mask_t>>::_Vector_impl" = type { %"struct.std::_Vector_base<zmq::tcp_address_mask_t, std::allocator<zmq::tcp_address_mask_t>>::_Vector_impl_data" }
%"struct.std::_Vector_base<zmq::tcp_address_mask_t, std::allocator<zmq::tcp_address_mask_t>>::_Vector_impl_data" = type { ptr, ptr, ptr }
%"class.std::set" = type { %"class.std::_Rb_tree" }
%"class.std::_Rb_tree" = type { %"struct.std::_Rb_tree<unsigned int, unsigned int, std::_Identity<unsigned int>, std::less<unsigned int>>::_Rb_tree_impl" }
%"struct.std::_Rb_tree<unsigned int, unsigned int, std::_Identity<unsigned int>, std::less<unsigned int>>::_Rb_tree_impl" = type { [8 x i8], %"struct.std::_Rb_tree_header" }
%"struct.std::_Rb_tree_header" = type { %"struct.std::_Rb_tree_node_base", i64 }
%"struct.std::_Rb_tree_node_base" = type { i32, ptr, ptr, ptr }
%"class.std::set.6" = type { %"class.std::_Rb_tree.7" }
%"class.std::_Rb_tree.7" = type { %"struct.std::_Rb_tree<int, int, std::_Identity<int>, std::less<int>>::_Rb_tree_impl" }
%"struct.std::_Rb_tree<int, int, std::_Identity<int>, std::less<int>>::_Rb_tree_impl" = type { [8 x i8], %"struct.std::_Rb_tree_header" }
%"class.std::map" = type { %"class.std::_Rb_tree.12" }
%"class.std::_Rb_tree.12" = type { %"struct.std::_Rb_tree<std::__cxx11::basic_string<char>, std::pair<const std::__cxx11::basic_string<char>, std::__cxx11::basic_string<char>>, std::_Select1st<std::pair<const std::__cxx11::basic_string<char>, std::__cxx11::basic_string<char>>>, std::less<std::__cxx11::basic_string<char>>>::_Rb_tree_impl" }
%"struct.std::_Rb_tree<std::__cxx11::basic_string<char>, std::pair<const std::__cxx11::basic_string<char>, std::__cxx11::basic_string<char>>, std::_Select1st<std::pair<const std::__cxx11::basic_string<char>, std::__cxx11::basic_string<char>>>, std::less<std::__cxx11::basic_string<char>>>::_Rb_tree_impl" = type { [8 x i8], %"struct.std::_Rb_tree_header" }
%"class.std::vector.17" = type { %"struct.std::_Vector_base.18" }
%"struct.std::_Vector_base.18" = type { %"struct.std::_Vector_base<unsigned char, std::allocator<unsigned char>>::_Vector_impl" }
%"struct.std::_Vector_base<unsigned char, std::allocator<unsigned char>>::_Vector_impl" = type { %"struct.std::_Vector_base<unsigned char, std::allocator<unsigned char>>::_Vector_impl_data" }
%"struct.std::_Vector_base<unsigned char, std::allocator<unsigned char>>::_Vector_impl_data" = type { ptr, ptr, ptr }
%"class.zmq::atomic_counter_t" = type { %"struct.std::atomic.22", [4 x i8] }
%"struct.std::atomic.22" = type { %"struct.std::__atomic_base.23" }
%"struct.std::__atomic_base.23" = type { i32 }
%"class.std::set.24" = type { %"class.std::_Rb_tree.25" }
%"class.std::_Rb_tree.25" = type { %"struct.std::_Rb_tree<zmq::own_t *, zmq::own_t *, std::_Identity<zmq::own_t *>, std::less<zmq::own_t *>>::_Rb_tree_impl" }
%"struct.std::_Rb_tree<zmq::own_t *, zmq::own_t *, std::_Identity<zmq::own_t *>, std::less<zmq::own_t *>>::_Rb_tree_impl" = type { [8 x i8], %"struct.std::_Rb_tree_header" }
%"class.zmq::array_item_t.base" = type <{ ptr, i32 }>
%"struct.zmq::i_poll_events" = type { ptr }
%"struct.zmq::i_pipe_events" = type { ptr }
%"class.std::multimap" = type { %"class.std::_Rb_tree.30" }
%"class.std::_Rb_tree.30" = type { %"struct.std::_Rb_tree<std::__cxx11::basic_string<char>, std::pair<const std::__cxx11::basic_string<char>, std::pair<zmq::own_t *, zmq::pipe_t *>>, std::_Select1st<std::pair<const std::__cxx11::basic_string<char>, std::pair<zmq::own_t *, zmq::pipe_t *>>>, std::less<std::__cxx11::basic_string<char>>>::_Rb_tree_impl" }
%"struct.std::_Rb_tree<std::__cxx11::basic_string<char>, std::pair<const std::__cxx11::basic_string<char>, std::pair<zmq::own_t *, zmq::pipe_t *>>, std::_Select1st<std::pair<const std::__cxx11::basic_string<char>, std::pair<zmq::own_t *, zmq::pipe_t *>>>, std::less<std::__cxx11::basic_string<char>>>::_Rb_tree_impl" = type { [8 x i8], %"struct.std::_Rb_tree_header" }
%"class.zmq::socket_base_t::inprocs_t" = type { %"class.std::multimap.34" }
%"class.std::multimap.34" = type { %"class.std::_Rb_tree.35" }
%"class.std::_Rb_tree.35" = type { %"struct.std::_Rb_tree<std::__cxx11::basic_string<char>, std::pair<const std::__cxx11::basic_string<char>, zmq::pipe_t *>, std::_Select1st<std::pair<const std::__cxx11::basic_string<char>, zmq::pipe_t *>>, std::less<std::__cxx11::basic_string<char>>>::_Rb_tree_impl" }
%"struct.std::_Rb_tree<std::__cxx11::basic_string<char>, std::pair<const std::__cxx11::basic_string<char>, zmq::pipe_t *>, std::_Select1st<std::pair<const std::__cxx11::basic_string<char>, zmq::pipe_t *>>, std::less<std::__cxx11::basic_string<char>>>::_Rb_tree_impl" = type { [8 x i8], %"struct.std::_Rb_tree_header" }
%"class.zmq::array_t" = type { %"class.std::vector.39" }
%"class.std::vector.39" = type { %"struct.std::_Vector_base.40" }
%"struct.std::_Vector_base.40" = type { %"struct.std::_Vector_base<zmq::pipe_t *, std::allocator<zmq::pipe_t *>>::_Vector_impl" }
%"struct.std::_Vector_base<zmq::pipe_t *, std::allocator<zmq::pipe_t *>>::_Vector_impl" = type { %"struct.std::_Vector_base<zmq::pipe_t *, std::allocator<zmq::pipe_t *>>::_Vector_impl_data" }
%"struct.std::_Vector_base<zmq::pipe_t *, std::allocator<zmq::pipe_t *>>::_Vector_impl_data" = type { ptr, ptr, ptr }
%"class.zmq::clock_t" = type { i64, i64 }
%"class.std::__cxx11::basic_string" = type { %"struct.std::__cxx11::basic_string<char>::_Alloc_hider", i64, %union.anon }
%"struct.std::__cxx11::basic_string<char>::_Alloc_hider" = type { ptr }
%union.anon = type { i64, [8 x i8] }
%"class.zmq::mutex_t" = type <{ %union.pthread_mutex_t, %union.pthread_mutexattr_t, [4 x i8] }>
%union.pthread_mutex_t = type { %struct.__pthread_mutex_s }
%struct.__pthread_mutex_s = type { i32, i32, i32, i32, i32, i16, i16, %struct.__pthread_internal_list }
%struct.__pthread_internal_list = type { ptr, ptr }
%union.pthread_mutexattr_t = type { i32 }
%"class.zmq::fq_t" = type <{ %"class.zmq::array_t.44", i64, i64, i8, [7 x i8] }>
%"class.zmq::array_t.44" = type { %"class.std::vector.39" }
%"class.zmq::dist_t" = type <{ %"class.zmq::array_t.45", i64, i64, i64, i8, [7 x i8] }>
%"class.zmq::array_t.45" = type { %"class.std::vector.39" }
%"class.std::set.46" = type { %"class.std::_Rb_tree.47" }
%"class.std::_Rb_tree.47" = type { %"struct.std::_Rb_tree<std::__cxx11::basic_string<char>, std::__cxx11::basic_string<char>, std::_Identity<std::__cxx11::basic_string<char>>, std::less<std::__cxx11::basic_string<char>>>::_Rb_tree_impl" }
%"struct.std::_Rb_tree<std::__cxx11::basic_string<char>, std::__cxx11::basic_string<char>, std::_Identity<std::__cxx11::basic_string<char>>, std::less<std::__cxx11::basic_string<char>>>::_Rb_tree_impl" = type { [8 x i8], %"struct.std::_Rb_tree_header" }
%"class.zmq::msg_t" = type { %union.anon.51 }
%union.anon.51 = type { %struct.anon }
%struct.anon = type { ptr, [34 x i8], i8, i8, i32, %"union.zmq::msg_t::group_t" }
%"union.zmq::msg_t::group_t" = type { %struct.anon.53 }
%struct.anon.53 = type { i8, ptr }

@stderr = external global ptr, align 8
@.str = private unnamed_addr constant [12 x i8] c"%s (%s:%d)\0A\00", align 1
@.str.1 = private unnamed_addr constant [104 x i8] c"generated/home/dtcxzyw/WorkSpace/Projects/compilers/llvm-opt-benchmark/bench/libzmq/libzmq/src/dish.cpp\00", align 1

; Function Attrs: mustprogress uwtable
define noundef zeroext i1 @_ZN3zmq6dish_t7xhas_inEv(ptr noundef nonnull align 8 dereferenceable(2056) %0) unnamed_addr #0 align 2 {
  %2 = alloca i1, align 1
  %3 = alloca ptr, align 8
  %4 = alloca i32, align 4
  %5 = alloca ptr, align 8
  %6 = alloca i32, align 4
  store ptr %0, ptr %3, align 8, !tbaa !3
  %7 = load ptr, ptr %3, align 8
  %8 = getelementptr inbounds nuw %"class.zmq::dish_t", ptr %7, i32 0, i32 5
  %9 = load i8, ptr %8, align 8, !tbaa !14, !range !112, !noundef !113
  %10 = trunc i8 %9 to i1
  br i1 %10, label %11, label %12

11:                                               ; preds = %1
  store i1 true, ptr %2, align 1
  br label %42

12:                                               ; preds = %1
  call void @llvm.lifetime.start.p0(i64 4, ptr %4) #18
  %13 = getelementptr inbounds nuw %"class.zmq::dish_t", ptr %7, i32 0, i32 6
  %14 = call noundef i32 @_ZN3zmq6dish_t6xxrecvEPNS_5msg_tE(ptr noundef nonnull align 8 dereferenceable(2056) %7, ptr noundef %13)
  store i32 %14, ptr %4, align 4, !tbaa !10
  %15 = load i32, ptr %4, align 4, !tbaa !10
  %16 = icmp ne i32 %15, 0
  br i1 %16, label %17, label %39

17:                                               ; preds = %12
  br label %18

18:                                               ; preds = %17
  %19 = call ptr @__errno_location() #19
  %20 = load i32, ptr %19, align 4, !tbaa !10
  %21 = icmp eq i32 %20, 11
  %22 = xor i1 %21, true
  %23 = zext i1 %22 to i64
  %24 = call i64 @llvm.expect.i64(i64 %23, i64 0)
  %25 = icmp ne i64 %24, 0
  br i1 %25, label %26, label %36

26:                                               ; preds = %18
  call void @llvm.lifetime.start.p0(i64 8, ptr %5) #18
  %27 = call ptr @__errno_location() #19
  %28 = load i32, ptr %27, align 4, !tbaa !10
  %29 = call ptr @strerror(i32 noundef %28) #18
  store ptr %29, ptr %5, align 8, !tbaa !97
  %30 = load ptr, ptr @stderr, align 8, !tbaa !98
  %31 = load ptr, ptr %5, align 8, !tbaa !97
  %32 = call i32 (ptr, ptr, ...) @fprintf(ptr noundef %30, ptr noundef @.str, ptr noundef %31, ptr noundef @.str.1, i32 noundef 185) #18
  %33 = load ptr, ptr @stderr, align 8, !tbaa !98
  %34 = call i32 @fflush(ptr noundef %33)
  %35 = load ptr, ptr %5, align 8, !tbaa !97
  call void @_ZN3zmq9zmq_abortEPKc(ptr noundef %35)
  call void @llvm.lifetime.end.p0(i64 8, ptr %5) #18
  br label %36

36:                                               ; preds = %26, %18
  br label %37

37:                                               ; preds = %36
  br label %38

38:                                               ; preds = %37
  store i1 false, ptr %2, align 1
  store i32 1, ptr %6, align 4
  br label %41

39:                                               ; preds = %12
  %40 = getelementptr inbounds nuw %"class.zmq::dish_t", ptr %7, i32 0, i32 5
  store i8 1, ptr %40, align 8, !tbaa !14
  store i1 true, ptr %2, align 1
  store i32 1, ptr %6, align 4
  br label %41

41:                                               ; preds = %39, %38
  call void @llvm.lifetime.end.p0(i64 4, ptr %4) #18
  br label %42

42:                                               ; preds = %41, %11
  %43 = load i1, ptr %2, align 1
  ret i1 %43
}