; Function Attrs: mustprogress uwtable
define noundef zeroext i1 @_ZN3zmq6dish_t7xhas_inEv(ptr noundef nonnull align 8 dereferenceable(2056) %0) unnamed_addr #0 align 2 {
  %2 = getelementptr inbounds nuw i8, ptr %0, i64 1984
  %3 = load i8, ptr %2, align 8, !tbaa !18, !range !110, !noundef !111
  %4 = trunc nuw i8 %3 to i1
  br i1 %4, label %18, label %5

5:                                                ; preds = %1
  %6 = getelementptr inbounds nuw i8, ptr %0, i64 1992
  %7 = tail call noundef i32 @_ZN3zmq6dish_t6xxrecvEPNS_5msg_tE(ptr noundef nonnull align 8 dereferenceable(2056) %0, ptr noundef nonnull %6)
  %.not = icmp eq i32 %7, 0
  br i1 %.not, label %17, label %8

8:                                                ; preds = %5
  %9 = tail call ptr @__errno_location() #21
  %10 = load i32, ptr %9, align 4, !tbaa !99
  %.not4 = icmp eq i32 %10, 11
  br i1 %.not4, label %18, label %11, !prof !98

11:                                               ; preds = %8
  %12 = tail call ptr @strerror(i32 noundef %10) #22
  %13 = load ptr, ptr @stderr, align 8, !tbaa !100
  %14 = tail call i32 (ptr, ptr, ...) @fprintf(ptr noundef %13, ptr noundef nonnull @.str, ptr noundef %12, ptr noundef nonnull @.str.1, i32 noundef 185) #23
  %15 = load ptr, ptr @stderr, align 8, !tbaa !100
  %16 = tail call i32 @fflush(ptr noundef %15)
  tail call void @_ZN3zmq9zmq_abortEPKc(ptr noundef %12)
  br label %18

17:                                               ; preds = %5
  store i8 1, ptr %2, align 8, !tbaa !18
  br label %18

18:                                               ; preds = %17, %11, %8, %1
  %.0 = phi i1 [ true, %1 ], [ false, %8 ], [ false, %11 ], [ true, %17 ]
  ret i1 %.0
}